target datalayout = "e-m:e-p270:32:32-p271:32:32-p272:64:64-i64:64-i128:128-f80:128-n8:16:32:64-S128"
target triple = "x86_64-pc-linux-gnu"

; Function Attrs: nounwind sspstrong uwtable
define dso_local void @rb_rand_bytes_int32(ptr noundef %0, ptr noundef %1, ptr noundef %2, i64 noundef %3) #0 {
  %5 = alloca ptr, align 8
  %6 = alloca ptr, align 8
  %7 = alloca ptr, align 8
  %8 = alloca i64, align 8
  %9 = alloca ptr, align 8
  %10 = alloca i32, align 4
  %11 = alloca i32, align 4
  store ptr %0, ptr %5, align 8, !tbaa !20
  store ptr %1, ptr %6, align 8, !tbaa !24
  store ptr %2, ptr %7, align 8, !tbaa !20
  store i64 %3, ptr %8, align 8, !tbaa !26
  call void @llvm.lifetime.start.p0(i64 8, ptr %9) #24
  %12 = load ptr, ptr %7, align 8, !tbaa !20
  store ptr %12, ptr %9, align 8, !tbaa !29
  call void @llvm.lifetime.start.p0(i64 4, ptr %10) #24
  call void @llvm.lifetime.start.p0(i64 4, ptr %11) #24
  br label %13

13:                                               ; preds = %32, %4
  %14 = load i64, ptr %8, align 8, !tbaa !26
  %15 = icmp uge i64 %14, 4
  br i1 %15, label %16, label %35

16:                                               ; preds = %13
  %17 = load ptr, ptr %5, align 8, !tbaa !20
  %18 = load ptr, ptr %6, align 8, !tbaa !24
  %19 = call i32 %17(ptr noundef %18)
  store i32 %19, ptr %10, align 4, !tbaa !19
  store i32 4, ptr %11, align 4, !tbaa !19
  br label %20

20:                                               ; preds = %27, %16
  %21 = load i32, ptr %10, align 4, !tbaa !19
  %22 = trunc i32 %21 to i8
  %23 = load ptr, ptr %9, align 8, !tbaa !29
  %24 = getelementptr i8, ptr %23, i32 1
  store ptr %24, ptr %9, align 8, !tbaa !29
  store i8 %22, ptr %23, align 1, !tbaa !50
  %25 = load i32, ptr %10, align 4, !tbaa !19
  %26 = lshr i32 %25, 8
  store i32 %26, ptr %10, align 4, !tbaa !19
  br label %27

27:                                               ; preds = %20
  %28 = load i32, ptr %11, align 4, !tbaa !19
  %29 = add i32 %28, -1
  store i32 %29, ptr %11, align 4, !tbaa !19
  %30 = icmp ne i32 %29, 0
  br i1 %30, label %20, label %31, !llvm.loop !51

31:                                               ; preds = %27
  br label %32

32:                                               ; preds = %31
  %33 = load i64, ptr %8, align 8, !tbaa !26
  %34 = sub i64 %33, 4
  store i64 %34, ptr %8, align 8, !tbaa !26
  br label %13, !llvm.loop !52

35:                                               ; preds = %13
  %36 = load i64, ptr %8, align 8, !tbaa !26
  %37 = icmp ugt i64 %36, 0
  br i1 %37, label %38, label %54

38:                                               ; preds = %35
  %39 = load ptr, ptr %5, align 8, !tbaa !20
  %40 = load ptr, ptr %6, align 8, !tbaa !24
  %41 = call i32 %39(ptr noundef %40)
  store i32 %41, ptr %10, align 4, !tbaa !19
  br label %42

42:                                               ; preds = %49, %38
  %43 = load i32, ptr %10, align 4, !tbaa !19
  %44 = trunc i32 %43 to i8
  %45 = load ptr, ptr %9, align 8, !tbaa !29
  %46 = getelementptr i8, ptr %45, i32 1
  store ptr %46, ptr %9, align 8, !tbaa !29
  store i8 %44, ptr %45, align 1, !tbaa !50
  %47 = load i32, ptr %10, align 4, !tbaa !19
  %48 = lshr i32 %47, 8
  store i32 %48, ptr %10, align 4, !tbaa !19
  br label %49

49:                                               ; preds = %42
  %50 = load i64, ptr %8, align 8, !tbaa !26
  %51 = add i64 %50, -1
  store i64 %51, ptr %8, align 8, !tbaa !26
  %52 = icmp ne i64 %51, 0
  br i1 %52, label %42, label %53, !llvm.loop !53

53:                                               ; preds = %49
  br label %54

54:                                               ; preds = %53, %35
  call void @llvm.lifetime.end.p0(i64 4, ptr %11) #24
  call void @llvm.lifetime.end.p0(i64 4, ptr %10) #24
  call void @llvm.lifetime.end.p0(i64 8, ptr %9) #24
  ret void
}