; Function Attrs: nounwind sspstrong uwtable
define dso_local void @rb_rand_bytes_int32(ptr noundef readonly captures(none) %0, ptr noundef %1, ptr noundef writeonly captures(none) %2, i64 noundef %3) local_unnamed_addr #0 {
  %5 = icmp ugt i64 %3, 3
  br i1 %5, label %.lr.ph, label %._crit_edge

.lr.ph:                                           ; preds = %4, %12
  %.01623 = phi ptr [ %9, %12 ], [ %2, %4 ]
  %.01822 = phi i64 [ %13, %12 ], [ %3, %4 ]
  %6 = tail call i32 %0(ptr noundef %1) #23
  br label %7

7:                                                ; preds = %7, %.lr.ph
  %.117 = phi ptr [ %.01623, %.lr.ph ], [ %9, %7 ]
  %.015 = phi i32 [ %6, %.lr.ph ], [ %10, %7 ]
  %.0 = phi i32 [ 4, %.lr.ph ], [ %11, %7 ]
  %8 = trunc i32 %.015 to i8
  %9 = getelementptr i8, ptr %.117, i64 1
  store i8 %8, ptr %.117, align 1, !tbaa !53
  %10 = lshr i32 %.015, 8
  %11 = add nsw i32 %.0, -1
  %.not21 = icmp eq i32 %11, 0
  br i1 %.not21, label %12, label %7, !llvm.loop !54

12:                                               ; preds = %7
  %13 = add i64 %.01822, -4
  %14 = icmp ugt i64 %13, 3
  br i1 %14, label %.lr.ph, label %._crit_edge, !llvm.loop !55

._crit_edge:                                      ; preds = %12, %4
  %.018.lcssa = phi i64 [ %3, %4 ], [ %13, %12 ]
  %.016.lcssa = phi ptr [ %2, %4 ], [ %9, %12 ]
  %.not = icmp eq i64 %.018.lcssa, 0
  br i1 %.not, label %.loopexit, label %15

15:                                               ; preds = %._crit_edge
  %16 = tail call i32 %0(ptr noundef %1) #23
  br label %17

17:                                               ; preds = %17, %15
  %.119 = phi i64 [ %.018.lcssa, %15 ], [ %21, %17 ]
  %.2 = phi ptr [ %.016.lcssa, %15 ], [ %19, %17 ]
  %.1 = phi i32 [ %16, %15 ], [ %20, %17 ]
  %18 = trunc i32 %.1 to i8
  %19 = getelementptr i8, ptr %.2, i64 1
  store i8 %18, ptr %.2, align 1, !tbaa !53
  %20 = lshr i32 %.1, 8
  %21 = add i64 %.119, -1
  %.not20 = icmp eq i64 %21, 0
  br i1 %.not20, label %.loopexit, label %17, !llvm.loop !56

.loopexit:                                        ; preds = %17, %._crit_edge
  ret void
}